; Function Attrs: mustprogress nounwind uwtable
define internal fastcc void @_ZN12_GLOBAL__N_111DeclPrinter18VisitNamespaceDeclEPN5clang13NamespaceDeclE(ptr noundef nonnull align 8 dereferenceable(37) %0, ptr noundef %1) unnamed_addr #0 align 2 {
  %3 = getelementptr inbounds i8, ptr %1, i64 56
  %4 = load i16, ptr %3, align 8
  %5 = and i16 %4, 8192
  %.not = icmp eq i16 %5, 0
  br i1 %.not, label %_ZN4llvm11raw_ostreamlsEPKc.exit, label %6

6:                                                ; preds = %2
  %7 = load ptr, ptr %0, align 8
  %8 = getelementptr inbounds nuw i8, ptr %7, i64 24
  %9 = load ptr, ptr %8, align 8
  %10 = getelementptr inbounds nuw i8, ptr %7, i64 32
  %11 = load ptr, ptr %10, align 8
  %12 = ptrtoint ptr %9 to i64
  %13 = ptrtoint ptr %11 to i64
  %14 = sub i64 %12, %13
  %15 = icmp ult i64 %14, 7
  br i1 %15, label %16, label %18

16:                                               ; preds = %6
  %17 = tail call noundef nonnull align 8 dereferenceable(48) ptr @_ZN4llvm11raw_ostream5writeEPKcm(ptr noundef nonnull align 8 dereferenceable(48) %7, ptr noundef nonnull @.str.59, i64 noundef 7) #14
  br label %_ZN4llvm11raw_ostreamlsEPKc.exit

18:                                               ; preds = %6
  tail call void @llvm.memcpy.p0.p0.i64(ptr noundef nonnull align 1 dereferenceable(7) %11, ptr noundef nonnull align 1 dereferenceable(7) @.str.59, i64 7, i1 false)
  %19 = load ptr, ptr %10, align 8
  %20 = getelementptr inbounds i8, ptr %19, i64 7
  store ptr %20, ptr %10, align 8
  br label %_ZN4llvm11raw_ostreamlsEPKc.exit

_ZN4llvm11raw_ostreamlsEPKc.exit:                 ; preds = %18, %16, %2
  %21 = load ptr, ptr %0, align 8
  %22 = getelementptr inbounds nuw i8, ptr %21, i64 24
  %23 = load ptr, ptr %22, align 8
  %24 = getelementptr inbounds nuw i8, ptr %21, i64 32
  %25 = load ptr, ptr %24, align 8
  %26 = ptrtoint ptr %23 to i64
  %27 = ptrtoint ptr %25 to i64
  %28 = sub i64 %26, %27
  %29 = icmp ult i64 %28, 10
  br i1 %29, label %30, label %32

30:                                               ; preds = %_ZN4llvm11raw_ostreamlsEPKc.exit
  %31 = tail call noundef nonnull align 8 dereferenceable(48) ptr @_ZN4llvm11raw_ostream5writeEPKcm(ptr noundef nonnull align 8 dereferenceable(48) %21, ptr noundef nonnull @.str.60, i64 noundef 10) #14
  br label %_ZN4llvm11raw_ostreamlsEPKc.exit7

32:                                               ; preds = %_ZN4llvm11raw_ostreamlsEPKc.exit
  tail call void @llvm.memcpy.p0.p0.i64(ptr noundef nonnull align 1 dereferenceable(10) %25, ptr noundef nonnull align 1 dereferenceable(10) @.str.60, i64 10, i1 false)
  %33 = load ptr, ptr %24, align 8
  %34 = getelementptr inbounds i8, ptr %33, i64 10
  store ptr %34, ptr %24, align 8
  br label %_ZN4llvm11raw_ostreamlsEPKc.exit7

_ZN4llvm11raw_ostreamlsEPKc.exit7:                ; preds = %30, %32
  %35 = getelementptr inbounds nuw i8, ptr %1, i64 40
  %.sroa.0.0.copyload.i = load i64, ptr %35, align 8
  %.not15 = icmp eq i64 %.sroa.0.0.copyload.i, 0
  br i1 %.not15, label %_ZN4llvm11raw_ostreamlsEc.exit, label %36

36:                                               ; preds = %_ZN4llvm11raw_ostreamlsEPKc.exit7
  %37 = load ptr, ptr %0, align 8
  %38 = tail call noundef nonnull align 8 dereferenceable(48) ptr @_ZN5clanglsERN4llvm11raw_ostreamENS_15DeclarationNameE(ptr noundef nonnull align 8 dereferenceable(48) %37, i64 %.sroa.0.0.copyload.i) #14
  %39 = getelementptr inbounds nuw i8, ptr %38, i64 32
  %40 = load ptr, ptr %39, align 8
  %41 = getelementptr inbounds nuw i8, ptr %38, i64 24
  %42 = load ptr, ptr %41, align 8
  %.not.i = icmp ult ptr %40, %42
  br i1 %.not.i, label %45, label %43

43:                                               ; preds = %36
  %44 = tail call noundef nonnull align 8 dereferenceable(48) ptr @_ZN4llvm11raw_ostream5writeEh(ptr noundef nonnull align 8 dereferenceable(48) %38, i8 noundef zeroext 32) #14
  br label %_ZN4llvm11raw_ostreamlsEc.exit

45:                                               ; preds = %36
  %46 = getelementptr inbounds i8, ptr %40, i64 1
  store ptr %46, ptr %39, align 8
  store i8 32, ptr %40, align 1
  br label %_ZN4llvm11raw_ostreamlsEc.exit

_ZN4llvm11raw_ostreamlsEc.exit:                   ; preds = %45, %43, %_ZN4llvm11raw_ostreamlsEPKc.exit7
  %47 = load ptr, ptr %0, align 8
  %48 = getelementptr inbounds nuw i8, ptr %47, i64 24
  %49 = load ptr, ptr %48, align 8
  %50 = getelementptr inbounds nuw i8, ptr %47, i64 32
  %51 = load ptr, ptr %50, align 8
  %52 = ptrtoint ptr %49 to i64
  %53 = ptrtoint ptr %51 to i64
  %54 = sub i64 %52, %53
  %55 = icmp ult i64 %54, 2
  br i1 %55, label %56, label %58

56:                                               ; preds = %_ZN4llvm11raw_ostreamlsEc.exit
  %57 = tail call noundef nonnull align 8 dereferenceable(48) ptr @_ZN4llvm11raw_ostream5writeEPKcm(ptr noundef nonnull align 8 dereferenceable(48) %47, ptr noundef nonnull @.str.24, i64 noundef 2) #14
  br label %_ZN4llvm11raw_ostreamlsEPKc.exit11

58:                                               ; preds = %_ZN4llvm11raw_ostreamlsEc.exit
  store i16 2683, ptr %51, align 1
  %59 = load ptr, ptr %50, align 8
  %60 = getelementptr inbounds i8, ptr %59, i64 2
  store ptr %60, ptr %50, align 8
  br label %_ZN4llvm11raw_ostreamlsEPKc.exit11

_ZN4llvm11raw_ostreamlsEPKc.exit11:               ; preds = %56, %58
  %61 = getelementptr inbounds i8, ptr %1, i64 48
  tail call fastcc void @_ZN12_GLOBAL__N_111DeclPrinter16VisitDeclContextEPN5clang11DeclContextEb(ptr noundef nonnull align 8 dereferenceable(37) %0, ptr noundef nonnull %61, i1 noundef zeroext true)
  %62 = getelementptr inbounds nuw i8, ptr %0, i64 32
  %63 = load i32, ptr %62, align 8
  %.not3.i.i = icmp eq i32 %63, 0
  br i1 %.not3.i.i, label %_ZN12_GLOBAL__N_111DeclPrinter6IndentEv.exit, label %.lr.ph.i.i

.lr.ph.i.i:                                       ; preds = %_ZN4llvm11raw_ostreamlsEPKc.exit11, %_ZN4llvm11raw_ostreamlsEPKc.exit.i.i
  %.04.i.i = phi i32 [ %78, %_ZN4llvm11raw_ostreamlsEPKc.exit.i.i ], [ 0, %_ZN4llvm11raw_ostreamlsEPKc.exit11 ]
  %64 = load ptr, ptr %0, align 8
  %65 = getelementptr inbounds nuw i8, ptr %64, i64 24
  %66 = load ptr, ptr %65, align 8
  %67 = getelementptr inbounds nuw i8, ptr %64, i64 32
  %68 = load ptr, ptr %67, align 8
  %69 = ptrtoint ptr %66 to i64
  %70 = ptrtoint ptr %68 to i64
  %71 = sub i64 %69, %70
  %72 = icmp ult i64 %71, 2
  br i1 %72, label %73, label %75

73:                                               ; preds = %.lr.ph.i.i
  %74 = tail call noundef nonnull align 8 dereferenceable(48) ptr @_ZN4llvm11raw_ostream5writeEPKcm(ptr noundef nonnull align 8 dereferenceable(48) %64, ptr noundef nonnull @.str.7, i64 noundef 2) #14
  br label %_ZN4llvm11raw_ostreamlsEPKc.exit.i.i

75:                                               ; preds = %.lr.ph.i.i
  store i16 8224, ptr %68, align 1
  %76 = load ptr, ptr %67, align 8
  %77 = getelementptr inbounds i8, ptr %76, i64 2
  store ptr %77, ptr %67, align 8
  br label %_ZN4llvm11raw_ostreamlsEPKc.exit.i.i

_ZN4llvm11raw_ostreamlsEPKc.exit.i.i:             ; preds = %75, %73
  %78 = add nuw i32 %.04.i.i, 1
  %.not.i.i = icmp eq i32 %78, %63
  br i1 %.not.i.i, label %_ZN12_GLOBAL__N_111DeclPrinter6IndentEv.exit, label %.lr.ph.i.i, !llvm.loop !9

_ZN12_GLOBAL__N_111DeclPrinter6IndentEv.exit:     ; preds = %_ZN4llvm11raw_ostreamlsEPKc.exit.i.i, %_ZN4llvm11raw_ostreamlsEPKc.exit11
  %79 = load ptr, ptr %0, align 8
  %80 = getelementptr inbounds nuw i8, ptr %79, i64 24
  %81 = load ptr, ptr %80, align 8
  %82 = getelementptr inbounds nuw i8, ptr %79, i64 32
  %83 = load ptr, ptr %82, align 8
  %84 = icmp eq ptr %81, %83
  br i1 %84, label %85, label %87

85:                                               ; preds = %_ZN12_GLOBAL__N_111DeclPrinter6IndentEv.exit
  %86 = tail call noundef nonnull align 8 dereferenceable(48) ptr @_ZN4llvm11raw_ostream5writeEPKcm(ptr noundef nonnull align 8 dereferenceable(48) %79, ptr noundef nonnull @.str.25, i64 noundef 1) #14
  br label %_ZN4llvm11raw_ostreamlsEPKc.exit14

87:                                               ; preds = %_ZN12_GLOBAL__N_111DeclPrinter6IndentEv.exit
  store i8 125, ptr %83, align 1
  %88 = load ptr, ptr %82, align 8
  %89 = getelementptr inbounds i8, ptr %88, i64 1
  store ptr %89, ptr %82, align 8
  br label %_ZN4llvm11raw_ostreamlsEPKc.exit14

_ZN4llvm11raw_ostreamlsEPKc.exit14:               ; preds = %85, %87
  ret void
}